target datalayout = "e-m:e-p270:32:32-p271:32:32-p272:64:64-i64:64-i128:128-f80:128-n8:16:32:64-S128"
target triple = "x86_64-unknown-linux-gnu"

%"class.std::basic_string_view" = type { i64, ptr }
%"class.grpc_core::slice_detail::BaseSlice" = type { %struct.grpc_slice }
%struct.grpc_slice = type { ptr, %"union.grpc_slice::grpc_slice_data" }
%"union.grpc_slice::grpc_slice_data" = type { %"struct.grpc_slice::grpc_slice_data::grpc_slice_refcounted", [8 x i8] }
%"struct.grpc_slice::grpc_slice_data::grpc_slice_refcounted" = type { i64, ptr }
%"class.absl::lts_20230802::FunctionRef" = type { %"union.absl::lts_20230802::functional_internal::VoidPtr", ptr }
%"union.absl::lts_20230802::functional_internal::VoidPtr" = type { ptr }
%"struct.grpc_slice::grpc_slice_data::grpc_slice_inlined" = type { i8, [23 x i8] }

@.str.6 = private unnamed_addr constant [14 x i8] c"invalid value\00", align 1
@.str.12 = private unnamed_addr constant [9 x i8] c"trailers\00", align 1

; Function Attrs: mustprogress nounwind uwtable
define linkonce_odr noundef i32 @_ZNSt17basic_string_viewIcSt11char_traitsIcEE10_S_compareEmm(i64 noundef %__n1, i64 noundef %__n2) #6 comdat align 2 {
entry:
  %retval = alloca i32, align 4
  %__n1.addr = alloca i64, align 8
  %__n2.addr = alloca i64, align 8
  %__diff = alloca i64, align 8
  store i64 %__n1, ptr %__n1.addr, align 8
  store i64 %__n2, ptr %__n2.addr, align 8
  %0 = load i64, ptr %__n1.addr, align 8
  %1 = load i64, ptr %__n2.addr, align 8
  %sub = sub i64 %0, %1
  store i64 %sub, ptr %__diff, align 8
  %2 = load i64, ptr %__diff, align 8
  %cmp = icmp sgt i64 %2, 2147483647
  br i1 %cmp, label %if.then, label %if.end

if.then:                                          ; preds = %entry
  store i32 2147483647, ptr %retval, align 4
  br label %return

if.end:                                           ; preds = %entry
  %3 = load i64, ptr %__diff, align 8
  %cmp1 = icmp slt i64 %3, -2147483648
  br i1 %cmp1, label %if.then2, label %if.end3

if.then2:                                         ; preds = %if.end
  store i32 -2147483648, ptr %retval, align 4
  br label %return

if.end3:                                          ; preds = %if.end
  %4 = load i64, ptr %__diff, align 8
  %conv = trunc i64 %4 to i32
  store i32 %conv, ptr %retval, align 4
  br label %return

return:                                           ; preds = %if.end3, %if.then2, %if.then
  %5 = load i32, ptr %retval, align 4
  ret i32 %5
}

; Function Attrs: mustprogress nounwind uwtable
define linkonce_odr noundef i32 @_ZNSt11char_traitsIcE7compareEPKcS2_m(ptr noundef %__s1, ptr noundef %__s2, i64 noundef %__n) #6 comdat align 2 {
entry:
  %retval = alloca i32, align 4
  %__s1.addr = alloca ptr, align 8
  %__s2.addr = alloca ptr, align 8
  %__n.addr = alloca i64, align 8
  store ptr %__s1, ptr %__s1.addr, align 8
  store ptr %__s2, ptr %__s2.addr, align 8
  store i64 %__n, ptr %__n.addr, align 8
  %0 = load i64, ptr %__n.addr, align 8
  %cmp = icmp eq i64 %0, 0
  br i1 %cmp, label %if.then, label %if.end

if.then:                                          ; preds = %entry
  store i32 0, ptr %retval, align 4
  br label %return

if.end:                                           ; preds = %entry
  %1 = load ptr, ptr %__s1.addr, align 8
  %2 = load ptr, ptr %__s2.addr, align 8
  %3 = load i64, ptr %__n.addr, align 8
  %call = call i32 @memcmp(ptr noundef %1, ptr noundef %2, i64 noundef %3) #3
  store i32 %call, ptr %retval, align 4
  br label %return

return:                                           ; preds = %if.end, %if.then
  %4 = load i32, ptr %retval, align 4
  ret i32 %4
}

; Function Attrs: mustprogress nounwind uwtable
define linkonce_odr noundef nonnull align 8 dereferenceable(8) ptr @_ZSt3minImERKT_S2_S2_(ptr noundef nonnull align 8 dereferenceable(8) %__a, ptr noundef nonnull align 8 dereferenceable(8) %__b) #6 comdat {
entry:
  %retval = alloca ptr, align 8
  %__a.addr = alloca ptr, align 8
  %__b.addr = alloca ptr, align 8
  store ptr %__a, ptr %__a.addr, align 8
  store ptr %__b, ptr %__b.addr, align 8
  %0 = load ptr, ptr %__b.addr, align 8
  %1 = load i64, ptr %0, align 8
  %2 = load ptr, ptr %__a.addr, align 8
  %3 = load i64, ptr %2, align 8
  %cmp = icmp ult i64 %1, %3
  br i1 %cmp, label %if.then, label %if.end

if.then:                                          ; preds = %entry
  %4 = load ptr, ptr %__b.addr, align 8
  store ptr %4, ptr %retval, align 8
  br label %return

if.end:                                           ; preds = %entry
  %5 = load ptr, ptr %__a.addr, align 8
  store ptr %5, ptr %retval, align 8
  br label %return

return:                                           ; preds = %if.end, %if.then
  %6 = load ptr, ptr %retval, align 8
  ret ptr %6
}

; Function Attrs: mustprogress nounwind uwtable
define linkonce_odr noundef nonnull align 8 dereferenceable(32) ptr @_ZNK9grpc_core12slice_detail9BaseSlice7c_sliceEv(ptr noundef nonnull align 8 dereferenceable(32) %this) #6 comdat align 2 {
entry:
  %this.addr = alloca ptr, align 8
  store ptr %this, ptr %this.addr, align 8
  %this1 = load ptr, ptr %this.addr, align 8
  %slice_ = getelementptr inbounds %"class.grpc_core::slice_detail::BaseSlice", ptr %this1, i32 0, i32 0
  ret ptr %slice_
}

; Function Attrs: mustprogress nounwind uwtable
define linkonce_odr noundef i32 @_ZNKSt17basic_string_viewIcSt11char_traitsIcEE7compareES2_(ptr noundef nonnull align 8 dereferenceable(16) %this, i64 %__str.coerce0, ptr %__str.coerce1) #6 comdat align 2 personality ptr @__gxx_personality_v0 {
entry:
  %__str = alloca %"class.std::basic_string_view", align 8
  %this.addr = alloca ptr, align 8
  %__rlen = alloca i64, align 8
  %__ret = alloca i32, align 4
  %0 = getelementptr inbounds { i64, ptr }, ptr %__str, i32 0, i32 0
  store i64 %__str.coerce0, ptr %0, align 8
  %1 = getelementptr inbounds { i64, ptr }, ptr %__str, i32 0, i32 1
  store ptr %__str.coerce1, ptr %1, align 8
  store ptr %this, ptr %this.addr, align 8
  %this1 = load ptr, ptr %this.addr, align 8
  %_M_len = getelementptr inbounds %"class.std::basic_string_view", ptr %this1, i32 0, i32 0
  %_M_len2 = getelementptr inbounds %"class.std::basic_string_view", ptr %__str, i32 0, i32 0
  %call = invoke noundef nonnull align 8 dereferenceable(8) ptr @_ZSt3minImERKT_S2_S2_(ptr noundef nonnull align 8 dereferenceable(8) %_M_len, ptr noundef nonnull align 8 dereferenceable(8) %_M_len2)
          to label %invoke.cont unwind label %terminate.lpad

invoke.cont:                                      ; preds = %entry
  %2 = load i64, ptr %call, align 8
  store i64 %2, ptr %__rlen, align 8
  %_M_str = getelementptr inbounds %"class.std::basic_string_view", ptr %this1, i32 0, i32 1
  %3 = load ptr, ptr %_M_str, align 8
  %_M_str3 = getelementptr inbounds %"class.std::basic_string_view", ptr %__str, i32 0, i32 1
  %4 = load ptr, ptr %_M_str3, align 8
  %5 = load i64, ptr %__rlen, align 8
  %call5 = invoke noundef i32 @_ZNSt11char_traitsIcE7compareEPKcS2_m(ptr noundef %3, ptr noundef %4, i64 noundef %5)
          to label %invoke.cont4 unwind label %terminate.lpad

invoke.cont4:                                     ; preds = %invoke.cont
  store i32 %call5, ptr %__ret, align 4
  %6 = load i32, ptr %__ret, align 4
  %cmp = icmp eq i32 %6, 0
  br i1 %cmp, label %if.then, label %if.end

if.then:                                          ; preds = %invoke.cont4
  %_M_len6 = getelementptr inbounds %"class.std::basic_string_view", ptr %this1, i32 0, i32 0
  %7 = load i64, ptr %_M_len6, align 8
  %_M_len7 = getelementptr inbounds %"class.std::basic_string_view", ptr %__str, i32 0, i32 0
  %8 = load i64, ptr %_M_len7, align 8
  %call8 = call noundef i32 @_ZNSt17basic_string_viewIcSt11char_traitsIcEE10_S_compareEmm(i64 noundef %7, i64 noundef %8) #3
  store i32 %call8, ptr %__ret, align 4
  br label %if.end

if.end:                                           ; preds = %if.then, %invoke.cont4
  %9 = load i32, ptr %__ret, align 4
  ret i32 %9

terminate.lpad:                                   ; preds = %invoke.cont, %entry
  %10 = landingpad { ptr, i32 }
          catch ptr null
  %11 = extractvalue { ptr, i32 } %10, 0
  call void @__clang_call_terminate(ptr %11) #14
  unreachable
}

; Function Attrs: mustprogress nounwind uwtable
define linkonce_odr noundef i64 @_ZNKSt17basic_string_viewIcSt11char_traitsIcEE4sizeEv(ptr noundef nonnull align 8 dereferenceable(16) %this) #6 comdat align 2 {
entry:
  %this.addr = alloca ptr, align 8
  store ptr %this, ptr %this.addr, align 8
  %this1 = load ptr, ptr %this.addr, align 8
  %_M_len = getelementptr inbounds %"class.std::basic_string_view", ptr %this1, i32 0, i32 0
  %0 = load i64, ptr %_M_len, align 8
  ret i64 %0
}

; Function Attrs: mustprogress nounwind uwtable
define linkonce_odr void @_ZNSt17basic_string_viewIcSt11char_traitsIcEEC2EPKcm(ptr noundef nonnull align 8 dereferenceable(16) %this, ptr noundef %__str, i64 noundef %__len) unnamed_addr #6 comdat align 2 {
entry:
  %this.addr = alloca ptr, align 8
  %__str.addr = alloca ptr, align 8
  %__len.addr = alloca i64, align 8
  store ptr %this, ptr %this.addr, align 8
  store ptr %__str, ptr %__str.addr, align 8
  store i64 %__len, ptr %__len.addr, align 8
  %this1 = load ptr, ptr %this.addr, align 8
  %_M_len = getelementptr inbounds %"class.std::basic_string_view", ptr %this1, i32 0, i32 0
  %0 = load i64, ptr %__len.addr, align 8
  store i64 %0, ptr %_M_len, align 8
  %_M_str = getelementptr inbounds %"class.std::basic_string_view", ptr %this1, i32 0, i32 1
  %1 = load ptr, ptr %__str.addr, align 8
  store ptr %1, ptr %_M_str, align 8
  ret void
}

; Function Attrs: mustprogress nounwind uwtable
define linkonce_odr noundef i64 @_ZNK9grpc_core12slice_detail9BaseSlice4sizeEv(ptr noundef nonnull align 8 dereferenceable(32) %this) #6 comdat align 2 {
entry:
  %this.addr = alloca ptr, align 8
  store ptr %this, ptr %this.addr, align 8
  %this1 = load ptr, ptr %this.addr, align 8
  %call = call noundef nonnull align 8 dereferenceable(32) ptr @_ZNK9grpc_core12slice_detail9BaseSlice7c_sliceEv(ptr noundef nonnull align 8 dereferenceable(32) %this1)
  %refcount = getelementptr inbounds %struct.grpc_slice, ptr %call, i32 0, i32 0
  %0 = load ptr, ptr %refcount, align 8
  %tobool = icmp ne ptr %0, null
  br i1 %tobool, label %cond.true, label %cond.false

cond.true:                                        ; preds = %entry
  %call2 = call noundef nonnull align 8 dereferenceable(32) ptr @_ZNK9grpc_core12slice_detail9BaseSlice7c_sliceEv(ptr noundef nonnull align 8 dereferenceable(32) %this1)
  %data = getelementptr inbounds %struct.grpc_slice, ptr %call2, i32 0, i32 1
  %length = getelementptr inbounds %"struct.grpc_slice::grpc_slice_data::grpc_slice_refcounted", ptr %data, i32 0, i32 0
  %1 = load i64, ptr %length, align 8
  br label %cond.end

cond.false:                                       ; preds = %entry
  %call3 = call noundef nonnull align 8 dereferenceable(32) ptr @_ZNK9grpc_core12slice_detail9BaseSlice7c_sliceEv(ptr noundef nonnull align 8 dereferenceable(32) %this1)
  %data4 = getelementptr inbounds %struct.grpc_slice, ptr %call3, i32 0, i32 1
  %length5 = getelementptr inbounds %"struct.grpc_slice::grpc_slice_data::grpc_slice_inlined", ptr %data4, i32 0, i32 0
  %2 = load i8, ptr %length5, align 8
  %conv = zext i8 %2 to i64
  br label %cond.end

cond.end:                                         ; preds = %cond.false, %cond.true
  %cond = phi i64 [ %1, %cond.true ], [ %conv, %cond.false ]
  ret i64 %cond
}

; Function Attrs: mustprogress nounwind uwtable
define linkonce_odr noundef ptr @_ZNK9grpc_core12slice_detail9BaseSlice4dataEv(ptr noundef nonnull align 8 dereferenceable(32) %this) #6 comdat align 2 {
entry:
  %this.addr = alloca ptr, align 8
  store ptr %this, ptr %this.addr, align 8
  %this1 = load ptr, ptr %this.addr, align 8
  %call = call noundef nonnull align 8 dereferenceable(32) ptr @_ZNK9grpc_core12slice_detail9BaseSlice7c_sliceEv(ptr noundef nonnull align 8 dereferenceable(32) %this1)
  %refcount = getelementptr inbounds %struct.grpc_slice, ptr %call, i32 0, i32 0
  %0 = load ptr, ptr %refcount, align 8
  %tobool = icmp ne ptr %0, null
  br i1 %tobool, label %cond.true, label %cond.false

cond.true:                                        ; preds = %entry
  %call2 = call noundef nonnull align 8 dereferenceable(32) ptr @_ZNK9grpc_core12slice_detail9BaseSlice7c_sliceEv(ptr noundef nonnull align 8 dereferenceable(32) %this1)
  %data = getelementptr inbounds %struct.grpc_slice, ptr %call2, i32 0, i32 1
  %bytes = getelementptr inbounds %"struct.grpc_slice::grpc_slice_data::grpc_slice_refcounted", ptr %data, i32 0, i32 1
  %1 = load ptr, ptr %bytes, align 8
  br label %cond.end

cond.false:                                       ; preds = %entry
  %call3 = call noundef nonnull align 8 dereferenceable(32) ptr @_ZNK9grpc_core12slice_detail9BaseSlice7c_sliceEv(ptr noundef nonnull align 8 dereferenceable(32) %this1)
  %data4 = getelementptr inbounds %struct.grpc_slice, ptr %call3, i32 0, i32 1
  %bytes5 = getelementptr inbounds %"struct.grpc_slice::grpc_slice_data::grpc_slice_inlined", ptr %data4, i32 0, i32 1
  %arraydecay = getelementptr inbounds [23 x i8], ptr %bytes5, i64 0, i64 0
  br label %cond.end

cond.end:                                         ; preds = %cond.false, %cond.true
  %cond = phi ptr [ %1, %cond.true ], [ %arraydecay, %cond.false ]
  ret ptr %cond
}

; Function Attrs: mustprogress nounwind uwtable
define linkonce_odr noundef zeroext i1 @_ZSteqIcSt11char_traitsIcEEbSt17basic_string_viewIT_T0_ES5_(i64 %__x.coerce0, ptr %__x.coerce1, i64 %__y.coerce0, ptr %__y.coerce1) #6 comdat {
entry:
  %__x = alloca %"class.std::basic_string_view", align 8
  %__y = alloca %"class.std::basic_string_view", align 8
  %agg.tmp = alloca %"class.std::basic_string_view", align 8
  %0 = getelementptr inbounds { i64, ptr }, ptr %__x, i32 0, i32 0
  store i64 %__x.coerce0, ptr %0, align 8
  %1 = getelementptr inbounds { i64, ptr }, ptr %__x, i32 0, i32 1
  store ptr %__x.coerce1, ptr %1, align 8
  %2 = getelementptr inbounds { i64, ptr }, ptr %__y, i32 0, i32 0
  store i64 %__y.coerce0, ptr %2, align 8
  %3 = getelementptr inbounds { i64, ptr }, ptr %__y, i32 0, i32 1
  store ptr %__y.coerce1, ptr %3, align 8
  %call = call noundef i64 @_ZNKSt17basic_string_viewIcSt11char_traitsIcEE4sizeEv(ptr noundef nonnull align 8 dereferenceable(16) %__x) #3
  %call1 = call noundef i64 @_ZNKSt17basic_string_viewIcSt11char_traitsIcEE4sizeEv(ptr noundef nonnull align 8 dereferenceable(16) %__y) #3
  %cmp = icmp eq i64 %call, %call1
  br i1 %cmp, label %land.rhs, label %land.end

land.rhs:                                         ; preds = %entry
  call void @llvm.memcpy.p0.p0.i64(ptr align 8 %agg.tmp, ptr align 8 %__y, i64 16, i1 false)
  %4 = getelementptr inbounds { i64, ptr }, ptr %agg.tmp, i32 0, i32 0
  %5 = load i64, ptr %4, align 8
  %6 = getelementptr inbounds { i64, ptr }, ptr %agg.tmp, i32 0, i32 1
  %7 = load ptr, ptr %6, align 8
  %call2 = call noundef i32 @_ZNKSt17basic_string_viewIcSt11char_traitsIcEE7compareES2_(ptr noundef nonnull align 8 dereferenceable(16) %__x, i64 %5, ptr %7) #3
  %cmp3 = icmp eq i32 %call2, 0
  br label %land.end

land.end:                                         ; preds = %land.rhs, %entry
  %8 = phi i1 [ false, %entry ], [ %cmp3, %land.rhs ]
  ret i1 %8
}

; Function Attrs: mustprogress uwtable
define linkonce_odr { i64, ptr } @_ZNK9grpc_core12slice_detail9BaseSlice14as_string_viewEv(ptr noundef nonnull align 8 dereferenceable(32) %this) #4 comdat align 2 {
entry:
  %retval = alloca %"class.std::basic_string_view", align 8
  %this.addr = alloca ptr, align 8
  store ptr %this, ptr %this.addr, align 8
  %this1 = load ptr, ptr %this.addr, align 8
  %call = call noundef ptr @_ZNK9grpc_core12slice_detail9BaseSlice4dataEv(ptr noundef nonnull align 8 dereferenceable(32) %this1)
  %call2 = call noundef i64 @_ZNK9grpc_core12slice_detail9BaseSlice4sizeEv(ptr noundef nonnull align 8 dereferenceable(32) %this1)
  call void @_ZNSt17basic_string_viewIcSt11char_traitsIcEEC2EPKcm(ptr noundef nonnull align 8 dereferenceable(16) %retval, ptr noundef %call, i64 noundef %call2) #3
  %0 = load { i64, ptr }, ptr %retval, align 8
  ret { i64, ptr } %0
}

; Function Attrs: noreturn nounwind uwtable
define linkonce_odr hidden void @__clang_call_terminate(ptr noundef %0) #10 comdat {
  %2 = call ptr @__cxa_begin_catch(ptr %0) #3
  call void @_ZSt9terminatev() #14
  unreachable
}

; Function Attrs: mustprogress nounwind uwtable
define linkonce_odr noundef i64 @_ZNSt11char_traitsIcE6lengthEPKc(ptr noundef %__s) #6 comdat align 2 {
entry:
  %__s.addr = alloca ptr, align 8
  store ptr %__s, ptr %__s.addr, align 8
  %0 = load ptr, ptr %__s.addr, align 8
  %call = call i64 @strlen(ptr noundef %0) #3
  ret i64 %call
}

; Function Attrs: mustprogress uwtable
define linkonce_odr void @_ZNK4absl12lts_2023080211FunctionRefIFvSt17basic_string_viewIcSt11char_traitsIcEERKN9grpc_core5SliceEEEclES5_S9_(ptr noundef nonnull align 8 dereferenceable(16) %this, i64 %args.coerce0, ptr %args.coerce1, ptr noundef nonnull align 8 dereferenceable(32) %args1) #4 comdat align 2 {
entry:
  %args = alloca %"class.std::basic_string_view", align 8
  %this.addr = alloca ptr, align 8
  %args.addr = alloca ptr, align 8
  %agg.tmp = alloca %"union.absl::lts_20230802::functional_internal::VoidPtr", align 8
  %agg.tmp3 = alloca %"class.std::basic_string_view", align 8
  %0 = getelementptr inbounds { i64, ptr }, ptr %args, i32 0, i32 0
  store i64 %args.coerce0, ptr %0, align 8
  %1 = getelementptr inbounds { i64, ptr }, ptr %args, i32 0, i32 1
  store ptr %args.coerce1, ptr %1, align 8
  store ptr %this, ptr %this.addr, align 8
  store ptr %args1, ptr %args.addr, align 8
  %this2 = load ptr, ptr %this.addr, align 8
  %invoker_ = getelementptr inbounds %"class.absl::lts_20230802::FunctionRef", ptr %this2, i32 0, i32 1
  %2 = load ptr, ptr %invoker_, align 8
  %ptr_ = getelementptr inbounds %"class.absl::lts_20230802::FunctionRef", ptr %this2, i32 0, i32 0
  call void @llvm.memcpy.p0.p0.i64(ptr align 8 %agg.tmp, ptr align 8 %ptr_, i64 8, i1 false)
  call void @llvm.memcpy.p0.p0.i64(ptr align 8 %agg.tmp3, ptr align 8 %args, i64 16, i1 false)
  %3 = load ptr, ptr %args.addr, align 8
  %coerce.dive = getelementptr inbounds %"union.absl::lts_20230802::functional_internal::VoidPtr", ptr %agg.tmp, i32 0, i32 0
  %4 = load ptr, ptr %coerce.dive, align 8
  %5 = getelementptr inbounds { i64, ptr }, ptr %agg.tmp3, i32 0, i32 0
  %6 = load i64, ptr %5, align 8
  %7 = getelementptr inbounds { i64, ptr }, ptr %agg.tmp3, i32 0, i32 1
  %8 = load ptr, ptr %7, align 8
  call void %2(ptr %4, i64 %6, ptr %8, ptr noundef nonnull align 8 dereferenceable(32) %3)
  ret void
}

; Function Attrs: mustprogress uwtable
define linkonce_odr noundef zeroext i1 @_ZN9grpc_core12slice_detaileqERKNS0_9BaseSliceESt17basic_string_viewIcSt11char_traitsIcEE(ptr noundef nonnull align 8 dereferenceable(32) %a, i64 %b.coerce0, ptr %b.coerce1) #4 comdat {
entry:
  %b = alloca %"class.std::basic_string_view", align 8
  %a.addr = alloca ptr, align 8
  %agg.tmp = alloca %"class.std::basic_string_view", align 8
  %agg.tmp1 = alloca %"class.std::basic_string_view", align 8
  %0 = getelementptr inbounds { i64, ptr }, ptr %b, i32 0, i32 0
  store i64 %b.coerce0, ptr %0, align 8
  %1 = getelementptr inbounds { i64, ptr }, ptr %b, i32 0, i32 1
  store ptr %b.coerce1, ptr %1, align 8
  store ptr %a, ptr %a.addr, align 8
  %2 = load ptr, ptr %a.addr, align 8
  %call = call { i64, ptr } @_ZNK9grpc_core12slice_detail9BaseSlice14as_string_viewEv(ptr noundef nonnull align 8 dereferenceable(32) %2)
  %3 = getelementptr inbounds { i64, ptr }, ptr %agg.tmp, i32 0, i32 0
  %4 = extractvalue { i64, ptr } %call, 0
  store i64 %4, ptr %3, align 8
  %5 = getelementptr inbounds { i64, ptr }, ptr %agg.tmp, i32 0, i32 1
  %6 = extractvalue { i64, ptr } %call, 1
  store ptr %6, ptr %5, align 8
  call void @llvm.memcpy.p0.p0.i64(ptr align 8 %agg.tmp1, ptr align 8 %b, i64 16, i1 false)
  %7 = getelementptr inbounds { i64, ptr }, ptr %agg.tmp, i32 0, i32 0
  %8 = load i64, ptr %7, align 8
  %9 = getelementptr inbounds { i64, ptr }, ptr %agg.tmp, i32 0, i32 1
  %10 = load ptr, ptr %9, align 8
  %11 = getelementptr inbounds { i64, ptr }, ptr %agg.tmp1, i32 0, i32 0
  %12 = load i64, ptr %11, align 8
  %13 = getelementptr inbounds { i64, ptr }, ptr %agg.tmp1, i32 0, i32 1
  %14 = load ptr, ptr %13, align 8
  %call2 = call noundef zeroext i1 @_ZSteqIcSt11char_traitsIcEEbSt17basic_string_viewIT_T0_ES5_(i64 %8, ptr %10, i64 %12, ptr %14) #3
  ret i1 %call2
}

; Function Attrs: mustprogress nounwind uwtable
define linkonce_odr void @_ZNSt17basic_string_viewIcSt11char_traitsIcEEC2EPKc(ptr noundef nonnull align 8 dereferenceable(16) %this, ptr noundef nonnull %__str) unnamed_addr #6 comdat align 2 personality ptr @__gxx_personality_v0 {
entry:
  %this.addr = alloca ptr, align 8
  %__str.addr = alloca ptr, align 8
  store ptr %this, ptr %this.addr, align 8
  store ptr %__str, ptr %__str.addr, align 8
  %this1 = load ptr, ptr %this.addr, align 8
  %_M_len = getelementptr inbounds %"class.std::basic_string_view", ptr %this1, i32 0, i32 0
  %0 = load ptr, ptr %__str.addr, align 8
  %call = invoke noundef i64 @_ZNSt11char_traitsIcE6lengthEPKc(ptr noundef %0)
          to label %invoke.cont unwind label %terminate.lpad

invoke.cont:                                      ; preds = %entry
  store i64 %call, ptr %_M_len, align 8
  %_M_str = getelementptr inbounds %"class.std::basic_string_view", ptr %this1, i32 0, i32 1
  %1 = load ptr, ptr %__str.addr, align 8
  store ptr %1, ptr %_M_str, align 8
  ret void

terminate.lpad:                                   ; preds = %entry
  %2 = landingpad { ptr, i32 }
          catch ptr null
  %3 = extractvalue { ptr, i32 } %2, 0
  call void @__clang_call_terminate(ptr %3) #14
  unreachable
}

; Function Attrs: mustprogress uwtable
define noundef zeroext i8 @_ZN9grpc_core10TeMetadata12ParseMementoENS_5SliceEbN4absl12lts_2023080211FunctionRefIFvSt17basic_string_viewIcSt11char_traitsIcEERKS1_EEE(ptr noundef %value, i1 noundef zeroext %0, ptr %on_error.coerce0, ptr %on_error.coerce1) #4 align 2 {
entry:
  %on_error = alloca %"class.absl::lts_20230802::FunctionRef", align 8
  %value.indirect_addr = alloca ptr, align 8
  %.addr = alloca i8, align 1
  %out = alloca i8, align 1
  %agg.tmp = alloca %"class.std::basic_string_view", align 8
  %agg.tmp1 = alloca %"class.std::basic_string_view", align 8
  %1 = getelementptr inbounds { ptr, ptr }, ptr %on_error, i32 0, i32 0
  store ptr %on_error.coerce0, ptr %1, align 8
  %2 = getelementptr inbounds { ptr, ptr }, ptr %on_error, i32 0, i32 1
  store ptr %on_error.coerce1, ptr %2, align 8
  store ptr %value, ptr %value.indirect_addr, align 8
  %frombool = zext i1 %0 to i8
  store i8 %frombool, ptr %.addr, align 1
  store i8 1, ptr %out, align 1
  call void @_ZNSt17basic_string_viewIcSt11char_traitsIcEEC2EPKc(ptr noundef nonnull align 8 dereferenceable(16) %agg.tmp, ptr noundef @.str.12) #3
  %3 = getelementptr inbounds { i64, ptr }, ptr %agg.tmp, i32 0, i32 0
  %4 = load i64, ptr %3, align 8
  %5 = getelementptr inbounds { i64, ptr }, ptr %agg.tmp, i32 0, i32 1
  %6 = load ptr, ptr %5, align 8
  %call = call noundef zeroext i1 @_ZN9grpc_core12slice_detaileqERKNS0_9BaseSliceESt17basic_string_viewIcSt11char_traitsIcEE(ptr noundef nonnull align 8 dereferenceable(32) %value, i64 %4, ptr %6)
  br i1 %call, label %if.then, label %if.else

if.then:                                          ; preds = %entry
  store i8 0, ptr %out, align 1
  br label %if.end

if.else:                                          ; preds = %entry
  call void @_ZNSt17basic_string_viewIcSt11char_traitsIcEEC2EPKc(ptr noundef nonnull align 8 dereferenceable(16) %agg.tmp1, ptr noundef @.str.6) #3
  %7 = getelementptr inbounds { i64, ptr }, ptr %agg.tmp1, i32 0, i32 0
  %8 = load i64, ptr %7, align 8
  %9 = getelementptr inbounds { i64, ptr }, ptr %agg.tmp1, i32 0, i32 1
  %10 = load ptr, ptr %9, align 8
  call void @_ZNK4absl12lts_2023080211FunctionRefIFvSt17basic_string_viewIcSt11char_traitsIcEERKN9grpc_core5SliceEEEclES5_S9_(ptr noundef nonnull align 8 dereferenceable(16) %on_error, i64 %8, ptr %10, ptr noundef nonnull align 8 dereferenceable(32) %value)
  br label %if.end

if.end:                                           ; preds = %if.else, %if.then
  %11 = load i8, ptr %out, align 1
  ret i8 %11
}