; Function Attrs: mustprogress uwtable
define noundef zeroext i8 @_ZN9grpc_core10TeMetadata12ParseMementoENS_5SliceEbN4absl12lts_2023080211FunctionRefIFvSt17basic_string_viewIcSt11char_traitsIcEERKS1_EEE(ptr noundef %value, i1 noundef zeroext %0, ptr %on_error.coerce0, ptr nocapture readonly %on_error.coerce1) local_unnamed_addr #3 align 2 personality ptr @__gxx_personality_v0 {
entry:
  %1 = load ptr, ptr %value, align 8
  %tobool.not.i.i.i = icmp eq ptr %1, null
  %data.i.i.i = getelementptr inbounds i8, ptr %value, i64 8
  %2 = load i64, ptr %data.i.i.i, align 8
  %conv.i.i.i = and i64 %2, 255
  %cond.i2.i.i = select i1 %tobool.not.i.i.i, i64 %conv.i.i.i, i64 %2
  %cmp.i.i = icmp eq i64 %cond.i2.i.i, 8
  br i1 %cmp.i.i, label %_ZNSt11char_traitsIcE7compareEPKcS2_m.exit.i.i.i, label %if.else

_ZNSt11char_traitsIcE7compareEPKcS2_m.exit.i.i.i: ; preds = %entry
  %bytes5.i.i.i = getelementptr inbounds i8, ptr %value, i64 9
  %bytes.i.i.i = getelementptr inbounds i8, ptr %value, i64 16
  %3 = load ptr, ptr %bytes.i.i.i, align 8
  %cond.i.i.i = select i1 %tobool.not.i.i.i, ptr %bytes5.i.i.i, ptr %3
  %bcmp.i.i = tail call i32 @bcmp(ptr noundef nonnull dereferenceable(8) %cond.i.i.i, ptr noundef nonnull dereferenceable(8) @.str.12, i64 8)
  %cmp.i.i.i = icmp eq i32 %bcmp.i.i, 0
  br i1 %cmp.i.i.i, label %if.end, label %if.else

if.else:                                          ; preds = %entry, %_ZNSt11char_traitsIcE7compareEPKcS2_m.exit.i.i.i
  tail call void %on_error.coerce1(ptr %on_error.coerce0, i64 13, ptr nonnull @.str.6, ptr noundef nonnull align 8 dereferenceable(32) %value)
  br label %if.end

if.end:                                           ; preds = %_ZNSt11char_traitsIcE7compareEPKcS2_m.exit.i.i.i, %if.else
  %out.0 = phi i8 [ 1, %if.else ], [ 0, %_ZNSt11char_traitsIcE7compareEPKcS2_m.exit.i.i.i ]
  ret i8 %out.0
}